; Function Attrs: nounwind uwtable
define hidden ptr @_glfw_calloc(i64 noundef %0, i64 noundef %1) local_unnamed_addr #2 {
  %3 = icmp ne i64 %0, 0
  %4 = icmp ne i64 %1, 0
  %or.cond = and i1 %3, %4
  br i1 %or.cond, label %5, label %14

5:                                                ; preds = %2
  %mul = tail call { i64, i1 } @llvm.umul.with.overflow.i64(i64 %1, i64 %0)
  %mul.ov = extractvalue { i64, i1 } %mul, 1
  br i1 %mul.ov, label %6, label %7

6:                                                ; preds = %5
  tail call void (i32, ptr, ...) @_glfwInputError(i32 noundef 65540, ptr noundef nonnull @.str.2)
  br label %14

7:                                                ; preds = %5
  %8 = load ptr, ptr getelementptr inbounds nuw (i8, ptr @_glfw, i64 8), align 8, !tbaa !8
  %9 = mul i64 %1, %0
  %10 = load ptr, ptr getelementptr inbounds nuw (i8, ptr @_glfw, i64 32), align 8, !tbaa !95
  %11 = tail call ptr %8(i64 noundef %9, ptr noundef %10) #21
  %.not = icmp eq ptr %11, null
  br i1 %.not, label %13, label %12

12:                                               ; preds = %7
  tail call void @llvm.memset.p0.i64(ptr nonnull align 1 %11, i8 0, i64 %9, i1 false)
  br label %14

13:                                               ; preds = %7
  tail call void (i32, ptr, ...) @_glfwInputError(i32 noundef 65541, ptr noundef null)
  br label %14

14:                                               ; preds = %2, %6, %12, %13
  %.1 = phi ptr [ null, %6 ], [ %11, %12 ], [ null, %13 ], [ null, %2 ]
  ret ptr %.1
}